target datalayout = "e-m:e-p270:32:32-p271:32:32-p272:64:64-i64:64-i128:128-f80:128-n8:16:32:64-S128"
target triple = "x86_64-pc-linux-gnu"

@.str.14 = private unnamed_addr constant [32 x i8] c"../openssl/test/sslbuffertest.c\00", align 1
@.str.15 = private unnamed_addr constant [28 x i8] c"Error parsing test options\0A\00", align 1
@.str.16 = private unnamed_addr constant [28 x i8] c"cert = test_get_argument(0)\00", align 1
@.str.17 = private unnamed_addr constant [28 x i8] c"pkey = test_get_argument(1)\00", align 1
@serverctx = internal global ptr null, align 8
@clientctx = internal global ptr null, align 8
@.str.18 = private unnamed_addr constant [31 x i8] c"Failed to create SSL_CTX pair\0A\00", align 1
@.str.19 = private unnamed_addr constant [10 x i8] c"test_func\00", align 1
@.str.20 = private unnamed_addr constant [18 x i8] c"test_free_buffers\00", align 1

; Function Attrs: nounwind uwtable
define dso_local i32 @setup_tests() #0 {
  %1 = alloca i32, align 4
  %2 = alloca ptr, align 8
  %3 = alloca ptr, align 8
  %4 = alloca i32, align 4
  call void @llvm.lifetime.start.p0(i64 8, ptr %2) #4
  call void @llvm.lifetime.start.p0(i64 8, ptr %3) #4
  %5 = call i32 @test_skip_common_options()
  %6 = icmp ne i32 %5, 0
  br i1 %6, label %8, label %7

7:                                                ; preds = %0
  call void (ptr, i32, ptr, ...) @test_error(ptr noundef @.str.14, i32 noundef 359, ptr noundef @.str.15)
  store i32 0, ptr %1, align 4
  store i32 1, ptr %4, align 4
  br label %26

8:                                                ; preds = %0
  %9 = call ptr @test_get_argument(i64 noundef 0)
  store ptr %9, ptr %2, align 8, !tbaa !4
  %10 = call i32 @test_ptr(ptr noundef @.str.14, i32 noundef 363, ptr noundef @.str.16, ptr noundef %9)
  %11 = icmp ne i32 %10, 0
  br i1 %11, label %12, label %16

12:                                               ; preds = %8
  %13 = call ptr @test_get_argument(i64 noundef 1)
  store ptr %13, ptr %3, align 8, !tbaa !4
  %14 = call i32 @test_ptr(ptr noundef @.str.14, i32 noundef 364, ptr noundef @.str.17, ptr noundef %13)
  %15 = icmp ne i32 %14, 0
  br i1 %15, label %17, label %16

16:                                               ; preds = %12, %8
  store i32 0, ptr %1, align 4
  store i32 1, ptr %4, align 4
  br label %26

17:                                               ; preds = %12
  %18 = call ptr @TLS_server_method()
  %19 = call ptr @TLS_client_method()
  %20 = load ptr, ptr %2, align 8, !tbaa !4
  %21 = load ptr, ptr %3, align 8, !tbaa !4
  %22 = call i32 @create_ssl_ctx_pair(ptr noundef null, ptr noundef %18, ptr noundef %19, i32 noundef 769, i32 noundef 0, ptr noundef @serverctx, ptr noundef @clientctx, ptr noundef %20, ptr noundef %21)
  %23 = icmp ne i32 %22, 0
  br i1 %23, label %25, label %24

24:                                               ; preds = %17
  call void (ptr, i32, ptr, ...) @test_error(ptr noundef @.str.14, i32 noundef 370, ptr noundef @.str.18)
  store i32 0, ptr %1, align 4
  store i32 1, ptr %4, align 4
  br label %26

25:                                               ; preds = %17
  call void @add_all_tests(ptr noundef @.str.19, ptr noundef @test_func, i32 noundef 9, i32 noundef 1)
  call void @add_all_tests(ptr noundef @.str.20, ptr noundef @test_free_buffers, i32 noundef 8, i32 noundef 1)
  store i32 1, ptr %1, align 4
  store i32 1, ptr %4, align 4
  br label %26

26:                                               ; preds = %25, %24, %16, %7
  call void @llvm.lifetime.end.p0(i64 8, ptr %3) #4
  call void @llvm.lifetime.end.p0(i64 8, ptr %2) #4
  %27 = load i32, ptr %1, align 4
  ret i32 %27
}