; Function Attrs: nounwind uwtable
define dso_local range(i32 0, 2) i32 @setup_tests() local_unnamed_addr #1 {
  %1 = tail call i32 @test_skip_common_options() #5
  %.not = icmp eq i32 %1, 0
  br i1 %.not, label %2, label %3

2:                                                ; preds = %0
  tail call void (ptr, i32, ptr, ...) @test_error(ptr noundef nonnull @.str.14, i32 noundef 359, ptr noundef nonnull @.str.15) #5
  br label %15

3:                                                ; preds = %0
  %4 = tail call ptr @test_get_argument(i64 noundef 0) #5
  %5 = tail call i32 @test_ptr(ptr noundef nonnull @.str.14, i32 noundef 363, ptr noundef nonnull @.str.16, ptr noundef %4) #5
  %.not2 = icmp eq i32 %5, 0
  br i1 %.not2, label %15, label %6

6:                                                ; preds = %3
  %7 = tail call ptr @test_get_argument(i64 noundef 1) #5
  %8 = tail call i32 @test_ptr(ptr noundef nonnull @.str.14, i32 noundef 364, ptr noundef nonnull @.str.17, ptr noundef %7) #5
  %.not3 = icmp eq i32 %8, 0
  br i1 %.not3, label %15, label %9

9:                                                ; preds = %6
  %10 = tail call ptr @TLS_server_method() #5
  %11 = tail call ptr @TLS_client_method() #5
  %12 = tail call i32 @create_ssl_ctx_pair(ptr noundef null, ptr noundef %10, ptr noundef %11, i32 noundef 769, i32 noundef 0, ptr noundef nonnull @serverctx, ptr noundef nonnull @clientctx, ptr noundef %4, ptr noundef %7) #5
  %.not4 = icmp eq i32 %12, 0
  br i1 %.not4, label %13, label %14

13:                                               ; preds = %9
  tail call void (ptr, i32, ptr, ...) @test_error(ptr noundef nonnull @.str.14, i32 noundef 370, ptr noundef nonnull @.str.18) #5
  br label %15

14:                                               ; preds = %9
  tail call void @add_all_tests(ptr noundef nonnull @.str.19, ptr noundef nonnull @test_func, i32 noundef 9, i32 noundef 1) #5
  tail call void @add_all_tests(ptr noundef nonnull @.str.20, ptr noundef nonnull @test_free_buffers, i32 noundef 8, i32 noundef 1) #5
  br label %15

15:                                               ; preds = %3, %6, %14, %13, %2
  %.0 = phi i32 [ 1, %14 ], [ 0, %13 ], [ 0, %2 ], [ 0, %6 ], [ 0, %3 ]
  ret i32 %.0
}